; Function Attrs: nounwind uwtable
define internal noundef i32 @_get_node_gpu_sum(ptr noundef readonly captures(none) %0, ptr noundef captures(none) %1) #0 {
  %3 = getelementptr inbounds nuw i8, ptr %0, i64 4
  %4 = load i32, ptr %3, align 4
  %5 = tail call i32 @gres_get_gpu_plugin_id() #14
  %.not = icmp eq i32 %4, %5
  br i1 %.not, label %6, label %18

6:                                                ; preds = %2
  %7 = getelementptr inbounds nuw i8, ptr %0, i64 8
  %8 = load ptr, ptr %7, align 8
  %9 = getelementptr inbounds nuw i8, ptr %8, i64 96
  %10 = load ptr, ptr %9, align 8
  %11 = getelementptr inbounds nuw i8, ptr %1, i64 8
  %12 = load i32, ptr %11, align 8
  %13 = sext i32 %12 to i64
  %14 = getelementptr inbounds i64, ptr %10, i64 %13
  %15 = load i64, ptr %14, align 8
  %16 = load i64, ptr %1, align 8
  %17 = add i64 %16, %15
  store i64 %17, ptr %1, align 8
  br label %18

18:                                               ; preds = %2, %6
  ret i32 0
}